; Function Attrs: nounwind uwtable
define dso_local range(i32 -1, 1) i32 @unpackmem_xmalloc(ptr noundef writeonly captures(none) initializes((0, 8)) %0, ptr noundef captures(none) initializes((0, 4)) %1, ptr noundef captures(none) %2) #0 {
  store ptr null, ptr %0, align 8
  %4 = getelementptr inbounds nuw i8, ptr %2, i64 16
  %5 = load i32, ptr %4, align 8
  %6 = getelementptr inbounds nuw i8, ptr %2, i64 20
  %7 = load i32, ptr %6, align 4
  %8 = sub i32 %5, %7
  %9 = icmp ult i32 %8, 4
  br i1 %9, label %unpack32.exit, label %10

10:                                               ; preds = %3
  %11 = getelementptr inbounds nuw i8, ptr %2, i64 8
  %12 = load ptr, ptr %11, align 8
  %13 = zext i32 %7 to i64
  %14 = getelementptr inbounds nuw i8, ptr %12, i64 %13
  %.0.copyload.i = load i32, ptr %14, align 1
  %15 = tail call noundef i32 @llvm.bswap.i32(i32 %.0.copyload.i)
  store i32 %15, ptr %1, align 4
  %16 = load i32, ptr %6, align 4
  %17 = add i32 %16, 4
  store i32 %17, ptr %6, align 4
  %18 = load i32, ptr %1, align 4
  %.not24 = icmp eq i32 %18, 0
  br i1 %.not24, label %40, label %19

19:                                               ; preds = %10
  %20 = icmp ugt i32 %18, 1073741824
  br i1 %20, label %21, label %23

21:                                               ; preds = %19
  %22 = tail call i32 (ptr, ...) @error(ptr noundef nonnull @.str.15, ptr noundef nonnull @__func__.unpackmem_xmalloc, i32 noundef %18, i32 noundef 1073741824) #14
  br label %unpack32.exit

23:                                               ; preds = %19
  %24 = load i32, ptr %4, align 8
  %25 = sub i32 %24, %17
  %26 = icmp ult i32 %25, %18
  br i1 %26, label %unpack32.exit, label %27

27:                                               ; preds = %23
  %28 = zext nneg i32 %18 to i64
  %29 = tail call ptr @slurm_xcalloc(i64 noundef 1, i64 noundef %28, i1 noundef zeroext true, i1 noundef zeroext true, ptr noundef nonnull @.str.1, i32 noundef 931, ptr noundef nonnull @__func__.unpackmem_xmalloc) #14
  store ptr %29, ptr %0, align 8
  %.not25 = icmp eq ptr %29, null
  br i1 %.not25, label %unpack32.exit, label %30

30:                                               ; preds = %27
  %31 = load ptr, ptr %11, align 8
  %32 = load i32, ptr %6, align 4
  %33 = zext i32 %32 to i64
  %34 = getelementptr inbounds nuw i8, ptr %31, i64 %33
  %35 = load i32, ptr %1, align 4
  %36 = zext i32 %35 to i64
  tail call void @llvm.memcpy.p0.p0.i64(ptr nonnull align 1 %29, ptr align 1 %34, i64 %36, i1 false)
  %37 = load i32, ptr %1, align 4
  %38 = load i32, ptr %6, align 4
  %39 = add i32 %38, %37
  store i32 %39, ptr %6, align 4
  br label %40

unpack32.exit:                                    ; preds = %3, %27, %23, %21
  store i32 0, ptr %1, align 4
  br label %40

40:                                               ; preds = %10, %unpack32.exit, %30
  %.022 = phi i32 [ -1, %unpack32.exit ], [ 0, %30 ], [ 0, %10 ]
  ret i32 %.022
}